; Function Attrs: nounwind uwtable
define hidden void @opj_tgt_encode(ptr noundef %0, ptr noundef readonly captures(none) %1, i32 noundef %2, i32 noundef %3) local_unnamed_addr #0 {
  %5 = alloca [31 x ptr], align 16
  call void @llvm.lifetime.start.p0(i64 248, ptr nonnull %5) #6
  %6 = getelementptr inbounds nuw i8, ptr %1, i64 16
  %7 = load ptr, ptr %6, align 8, !tbaa !15
  %8 = zext i32 %2 to i64
  %9 = getelementptr inbounds nuw %struct.opj_tgt_node, ptr %7, i64 %8
  %10 = load ptr, ptr %9, align 8, !tbaa !17
  %.not33 = icmp eq ptr %10, null
  br i1 %.not33, label %.preheader.preheader, label %.lr.ph

.lr.ph:                                           ; preds = %4, %.lr.ph
  %11 = phi ptr [ %13, %.lr.ph ], [ %10, %4 ]
  %.02335 = phi ptr [ %11, %.lr.ph ], [ %9, %4 ]
  %.02534 = phi ptr [ %12, %.lr.ph ], [ %5, %4 ]
  %12 = getelementptr inbounds nuw i8, ptr %.02534, i64 8
  store ptr %.02335, ptr %.02534, align 8, !tbaa !31
  %13 = load ptr, ptr %11, align 8, !tbaa !17
  %.not = icmp eq ptr %13, null
  br i1 %.not, label %.preheader.preheader, label %.lr.ph, !llvm.loop !32

.preheader.preheader:                             ; preds = %.lr.ph, %4
  %.126.ph = phi ptr [ %5, %4 ], [ %12, %.lr.ph ]
  %.124.ph = phi ptr [ %9, %4 ], [ %11, %.lr.ph ]
  br label %.preheader

.preheader:                                       ; preds = %.preheader.preheader, %30
  %.126 = phi ptr [ %31, %30 ], [ %.126.ph, %.preheader.preheader ]
  %.124 = phi ptr [ %32, %30 ], [ %.124.ph, %.preheader.preheader ]
  %.0 = phi i32 [ %.232, %30 ], [ 0, %.preheader.preheader ]
  %14 = getelementptr inbounds nuw i8, ptr %.124, i64 12
  %15 = load i32, ptr %14, align 4, !tbaa !23
  %16 = icmp sgt i32 %.0, %15
  br i1 %16, label %17, label %18

17:                                               ; preds = %.preheader
  store i32 %.0, ptr %14, align 4, !tbaa !23
  br label %18

18:                                               ; preds = %.preheader, %17
  %.1 = phi i32 [ %.0, %17 ], [ %15, %.preheader ]
  %19 = icmp slt i32 %.1, %3
  br i1 %19, label %.lr.ph38, label %.loopexit

.lr.ph38:                                         ; preds = %18
  %20 = getelementptr inbounds nuw i8, ptr %.124, i64 8
  br label %21

21:                                               ; preds = %.lr.ph38, %27
  %.237 = phi i32 [ %.1, %.lr.ph38 ], [ %28, %27 ]
  %22 = load i32, ptr %20, align 8, !tbaa !22
  %.not29 = icmp slt i32 %.237, %22
  br i1 %.not29, label %27, label %23

23:                                               ; preds = %21
  %24 = getelementptr inbounds nuw i8, ptr %.124, i64 16
  %25 = load i32, ptr %24, align 8, !tbaa !24
  %.not30 = icmp eq i32 %25, 0
  br i1 %.not30, label %26, label %.loopexit

26:                                               ; preds = %23
  call void @opj_bio_putbit(ptr noundef %0, i32 noundef 1) #6
  store i32 1, ptr %24, align 8, !tbaa !24
  br label %.loopexit

27:                                               ; preds = %21
  call void @opj_bio_putbit(ptr noundef %0, i32 noundef 0) #6
  %28 = add nsw i32 %.237, 1
  %exitcond.not = icmp eq i32 %28, %3
  br i1 %exitcond.not, label %.loopexit, label %21, !llvm.loop !33

.loopexit:                                        ; preds = %27, %18, %23, %26
  %.232 = phi i32 [ %.237, %23 ], [ %.237, %26 ], [ %.1, %18 ], [ %3, %27 ]
  store i32 %.232, ptr %14, align 4, !tbaa !23
  %29 = icmp eq ptr %.126, %5
  br i1 %29, label %33, label %30

30:                                               ; preds = %.loopexit
  %31 = getelementptr inbounds i8, ptr %.126, i64 -8
  %32 = load ptr, ptr %31, align 8, !tbaa !31
  br label %.preheader

33:                                               ; preds = %.loopexit
  call void @llvm.lifetime.end.p0(i64 248, ptr nonnull %5) #6
  ret void
}